target datalayout = "e-m:e-p270:32:32-p271:32:32-p272:64:64-i64:64-i128:128-f80:128-n8:16:32:64-S128"
target triple = "x86_64-pc-linux-gnu"

%"struct.duckdb::utf8proc_property_struct" = type { i16, i16, i16, i16, i16, i16, i16, i16, i16, i16, i16, [2 x i8] }

; Function Attrs: mustprogress nounwind uwtable
define internal noundef ptr @_ZN6duckdbL19unsafe_get_propertyEi(i32 noundef %0) #0 {
  %2 = alloca i32, align 4
  store i32 %0, ptr %2, align 4, !tbaa !12
  %3 = load i32, ptr %2, align 4, !tbaa !12
  %4 = ashr i32 %3, 8
  %5 = sext i32 %4 to i64
  %6 = getelementptr inbounds [4352 x i16], ptr @_ZN6duckdbL20utf8proc_stage1tableE, i64 0, i64 %5
  %7 = load i16, ptr %6, align 2, !tbaa !15
  %8 = zext i16 %7 to i32
  %9 = load i32, ptr %2, align 4, !tbaa !12
  %10 = and i32 %9, 255
  %11 = add nsw i32 %8, %10
  %12 = sext i32 %11 to i64
  %13 = getelementptr inbounds [44800 x i16], ptr @_ZN6duckdbL20utf8proc_stage2tableE, i64 0, i64 %12
  %14 = load i16, ptr %13, align 2, !tbaa !15
  %15 = zext i16 %14 to i32
  %16 = sext i32 %15 to i64
  %17 = getelementptr inbounds %"struct.duckdb::utf8proc_property_struct", ptr @_ZN6duckdbL19utf8proc_propertiesE, i64 %16
  ret ptr %17
}

; Function Attrs: mustprogress uwtable
define noundef i64 @_ZN6duckdb25utf8proc_decompose_customEPKhlPilNS_17utf8proc_option_tEPFiiPvES4_(ptr noundef %0, i64 noundef %1, ptr noundef %2, i64 noundef %3, i32 noundef %4, ptr noundef %5, ptr noundef %6) #2 {
  %8 = alloca i64, align 8
  %9 = alloca ptr, align 8
  %10 = alloca i64, align 8
  %11 = alloca ptr, align 8
  %12 = alloca i64, align 8
  %13 = alloca i32, align 4
  %14 = alloca ptr, align 8
  %15 = alloca ptr, align 8
  %16 = alloca i64, align 8
  %17 = alloca i32, align 4
  %18 = alloca i32, align 4
  %19 = alloca i64, align 8
  %20 = alloca i64, align 8
  %21 = alloca i32, align 4
  %22 = alloca i64, align 8
  %23 = alloca i32, align 4
  %24 = alloca i32, align 4
  %25 = alloca ptr, align 8
  %26 = alloca ptr, align 8
  store ptr %0, ptr %9, align 8, !tbaa !7
  store i64 %1, ptr %10, align 8, !tbaa !3
  store ptr %2, ptr %11, align 8, !tbaa !10
  store i64 %3, ptr %12, align 8, !tbaa !3
  store i32 %4, ptr %13, align 4, !tbaa !30
  store ptr %5, ptr %14, align 8, !tbaa !37
  store ptr %6, ptr %15, align 8, !tbaa !37
  call void @llvm.lifetime.start.p0(i64 8, ptr %16) #6
  store i64 0, ptr %16, align 8, !tbaa !3
  %27 = load i32, ptr %13, align 4, !tbaa !30
  %28 = and i32 %27, 8
  %29 = icmp ne i32 %28, 0
  br i1 %29, label %30, label %35

30:                                               ; preds = %7
  %31 = load i32, ptr %13, align 4, !tbaa !30
  %32 = and i32 %31, 16
  %33 = icmp ne i32 %32, 0
  br i1 %33, label %34, label %35

34:                                               ; preds = %30
  store i64 -5, ptr %8, align 8
  store i32 1, ptr %17, align 4
  br label %210

35:                                               ; preds = %30, %7
  %36 = load i32, ptr %13, align 4, !tbaa !30
  %37 = and i32 %36, 8192
  %38 = icmp ne i32 %37, 0
  br i1 %38, label %39, label %48

39:                                               ; preds = %35
  %40 = load i32, ptr %13, align 4, !tbaa !30
  %41 = and i32 %40, 8
  %42 = icmp ne i32 %41, 0
  br i1 %42, label %48, label %43

43:                                               ; preds = %39
  %44 = load i32, ptr %13, align 4, !tbaa !30
  %45 = and i32 %44, 16
  %46 = icmp ne i32 %45, 0
  br i1 %46, label %48, label %47

47:                                               ; preds = %43
  store i64 -5, ptr %8, align 8
  store i32 1, ptr %17, align 4
  br label %210

48:                                               ; preds = %43, %39, %35
  call void @llvm.lifetime.start.p0(i64 4, ptr %18) #6
  call void @llvm.lifetime.start.p0(i64 8, ptr %19) #6
  store i64 0, ptr %19, align 8, !tbaa !3
  call void @llvm.lifetime.start.p0(i64 8, ptr %20) #6
  call void @llvm.lifetime.start.p0(i64 4, ptr %21) #6
  store i32 0, ptr %21, align 4, !tbaa !12
  br label %49

49:                                               ; preds = %137, %48
  br label %50

50:                                               ; preds = %49
  %51 = load i32, ptr %13, align 4, !tbaa !30
  %52 = and i32 %51, 1
  %53 = icmp ne i32 %52, 0
  br i1 %53, label %54, label %73

54:                                               ; preds = %50
  %55 = load ptr, ptr %9, align 8, !tbaa !7
  %56 = load i64, ptr %19, align 8, !tbaa !3
  %57 = getelementptr inbounds i8, ptr %55, i64 %56
  %58 = call noundef i64 @_ZN6duckdb16utf8proc_iterateEPKhlPi(ptr noundef %57, i64 noundef -1, ptr noundef %18)
  %59 = load i64, ptr %19, align 8, !tbaa !3
  %60 = add nsw i64 %59, %58
  store i64 %60, ptr %19, align 8, !tbaa !3
  %61 = load i32, ptr %18, align 4, !tbaa !12
  %62 = icmp slt i32 %61, 0
  br i1 %62, label %63, label %64

63:                                               ; preds = %54
  store i64 -3, ptr %8, align 8
  store i32 1, ptr %17, align 4
  br label %139

64:                                               ; preds = %54
  %65 = load i64, ptr %19, align 8, !tbaa !3
  %66 = icmp slt i64 %65, 0
  br i1 %66, label %67, label %68

67:                                               ; preds = %64
  store i64 -2, ptr %8, align 8
  store i32 1, ptr %17, align 4
  br label %139

68:                                               ; preds = %64
  %69 = load i32, ptr %18, align 4, !tbaa !12
  %70 = icmp eq i32 %69, 0
  br i1 %70, label %71, label %72

71:                                               ; preds = %68
  br label %138

72:                                               ; preds = %68
  br label %92

73:                                               ; preds = %50
  %74 = load i64, ptr %19, align 8, !tbaa !3
  %75 = load i64, ptr %10, align 8, !tbaa !3
  %76 = icmp sge i64 %74, %75
  br i1 %76, label %77, label %78

77:                                               ; preds = %73
  br label %138

78:                                               ; preds = %73
  %79 = load ptr, ptr %9, align 8, !tbaa !7
  %80 = load i64, ptr %19, align 8, !tbaa !3
  %81 = getelementptr inbounds i8, ptr %79, i64 %80
  %82 = load i64, ptr %10, align 8, !tbaa !3
  %83 = load i64, ptr %19, align 8, !tbaa !3
  %84 = sub nsw i64 %82, %83
  %85 = call noundef i64 @_ZN6duckdb16utf8proc_iterateEPKhlPi(ptr noundef %81, i64 noundef %84, ptr noundef %18)
  %86 = load i64, ptr %19, align 8, !tbaa !3
  %87 = add nsw i64 %86, %85
  store i64 %87, ptr %19, align 8, !tbaa !3
  %88 = load i32, ptr %18, align 4, !tbaa !12
  %89 = icmp slt i32 %88, 0
  br i1 %89, label %90, label %91

90:                                               ; preds = %78
  store i64 -3, ptr %8, align 8
  store i32 1, ptr %17, align 4
  br label %139

91:                                               ; preds = %78
  br label %92

92:                                               ; preds = %91, %72
  %93 = load ptr, ptr %14, align 8, !tbaa !37
  %94 = icmp ne ptr %93, null
  br i1 %94, label %95, label %100

95:                                               ; preds = %92
  %96 = load ptr, ptr %14, align 8, !tbaa !37
  %97 = load i32, ptr %18, align 4, !tbaa !12
  %98 = load ptr, ptr %15, align 8, !tbaa !37
  %99 = call noundef i32 %96(i32 noundef %97, ptr noundef %98)
  store i32 %99, ptr %18, align 4, !tbaa !12
  br label %100

100:                                              ; preds = %95, %92
  %101 = load i32, ptr %18, align 4, !tbaa !12
  %102 = load ptr, ptr %11, align 8, !tbaa !10
  %103 = icmp ne ptr %102, null
  br i1 %103, label %104, label %108

104:                                              ; preds = %100
  %105 = load ptr, ptr %11, align 8, !tbaa !10
  %106 = load i64, ptr %16, align 8, !tbaa !3
  %107 = getelementptr inbounds i32, ptr %105, i64 %106
  br label %109

108:                                              ; preds = %100
  br label %109

109:                                              ; preds = %108, %104
  %110 = phi ptr [ %107, %104 ], [ null, %108 ]
  %111 = load i64, ptr %12, align 8, !tbaa !3
  %112 = load i64, ptr %16, align 8, !tbaa !3
  %113 = icmp sgt i64 %111, %112
  br i1 %113, label %114, label %118

114:                                              ; preds = %109
  %115 = load i64, ptr %12, align 8, !tbaa !3
  %116 = load i64, ptr %16, align 8, !tbaa !3
  %117 = sub nsw i64 %115, %116
  br label %119

118:                                              ; preds = %109
  br label %119

119:                                              ; preds = %118, %114
  %120 = phi i64 [ %117, %114 ], [ 0, %118 ]
  %121 = load i32, ptr %13, align 4, !tbaa !30
  %122 = call noundef i64 @_ZN6duckdb23utf8proc_decompose_charEiPilNS_17utf8proc_option_tES0_(i32 noundef %101, ptr noundef %110, i64 noundef %120, i32 noundef %121, ptr noundef %21)
  store i64 %122, ptr %20, align 8, !tbaa !3
  %123 = load i64, ptr %20, align 8, !tbaa !3
  %124 = icmp slt i64 %123, 0
  br i1 %124, label %125, label %127

125:                                              ; preds = %119
  %126 = load i64, ptr %20, align 8, !tbaa !3
  store i64 %126, ptr %8, align 8
  store i32 1, ptr %17, align 4
  br label %139

127:                                              ; preds = %119
  %128 = load i64, ptr %20, align 8, !tbaa !3
  %129 = load i64, ptr %16, align 8, !tbaa !3
  %130 = add nsw i64 %129, %128
  store i64 %130, ptr %16, align 8, !tbaa !3
  %131 = load i64, ptr %16, align 8, !tbaa !3
  %132 = icmp slt i64 %131, 0
  br i1 %132, label %136, label %133

133:                                              ; preds = %127
  %134 = load i64, ptr %16, align 8, !tbaa !3
  %135 = icmp sgt i64 %134, 1152921504606846975
  br i1 %135, label %136, label %137

136:                                              ; preds = %133, %127
  store i64 -2, ptr %8, align 8
  store i32 1, ptr %17, align 4
  br label %139

137:                                              ; preds = %133
  br label %49, !llvm.loop !38

138:                                              ; preds = %77, %71
  store i32 0, ptr %17, align 4
  br label %139

139:                                              ; preds = %138, %136, %125, %90, %67, %63
  call void @llvm.lifetime.end.p0(i64 4, ptr %21) #6
  call void @llvm.lifetime.end.p0(i64 8, ptr %20) #6
  call void @llvm.lifetime.end.p0(i64 8, ptr %19) #6
  call void @llvm.lifetime.end.p0(i64 4, ptr %18) #6
  %140 = load i32, ptr %17, align 4
  switch i32 %140, label %210 [
    i32 0, label %141
  ]

141:                                              ; preds = %139
  %142 = load i32, ptr %13, align 4, !tbaa !30
  %143 = and i32 %142, 24
  %144 = icmp ne i32 %143, 0
  br i1 %144, label %145, label %208

145:                                              ; preds = %141
  %146 = load i64, ptr %12, align 8, !tbaa !3
  %147 = load i64, ptr %16, align 8, !tbaa !3
  %148 = icmp sge i64 %146, %147
  br i1 %148, label %149, label %208

149:                                              ; preds = %145
  call void @llvm.lifetime.start.p0(i64 8, ptr %22) #6
  store i64 0, ptr %22, align 8, !tbaa !3
  br label %150

150:                                              ; preds = %206, %149
  %151 = load i64, ptr %22, align 8, !tbaa !3
  %152 = load i64, ptr %16, align 8, !tbaa !3
  %153 = sub nsw i64 %152, 1
  %154 = icmp slt i64 %151, %153
  br i1 %154, label %155, label %207

155:                                              ; preds = %150
  call void @llvm.lifetime.start.p0(i64 4, ptr %23) #6
  call void @llvm.lifetime.start.p0(i64 4, ptr %24) #6
  call void @llvm.lifetime.start.p0(i64 8, ptr %25) #6
  call void @llvm.lifetime.start.p0(i64 8, ptr %26) #6
  %156 = load ptr, ptr %11, align 8, !tbaa !10
  %157 = load i64, ptr %22, align 8, !tbaa !3
  %158 = getelementptr inbounds i32, ptr %156, i64 %157
  %159 = load i32, ptr %158, align 4, !tbaa !12
  store i32 %159, ptr %23, align 4, !tbaa !12
  %160 = load ptr, ptr %11, align 8, !tbaa !10
  %161 = load i64, ptr %22, align 8, !tbaa !3
  %162 = add nsw i64 %161, 1
  %163 = getelementptr inbounds i32, ptr %160, i64 %162
  %164 = load i32, ptr %163, align 4, !tbaa !12
  store i32 %164, ptr %24, align 4, !tbaa !12
  %165 = load i32, ptr %23, align 4, !tbaa !12
  %166 = call noundef ptr @_ZN6duckdbL19unsafe_get_propertyEi(i32 noundef %165)
  store ptr %166, ptr %25, align 8, !tbaa !17
  %167 = load i32, ptr %24, align 4, !tbaa !12
  %168 = call noundef ptr @_ZN6duckdbL19unsafe_get_propertyEi(i32 noundef %167)
  store ptr %168, ptr %26, align 8, !tbaa !17
  %169 = load ptr, ptr %25, align 8, !tbaa !17
  %170 = getelementptr inbounds nuw %"struct.duckdb::utf8proc_property_struct", ptr %169, i32 0, i32 1
  %171 = load i16, ptr %170, align 2, !tbaa !39
  %172 = sext i16 %171 to i32
  %173 = load ptr, ptr %26, align 8, !tbaa !17
  %174 = getelementptr inbounds nuw %"struct.duckdb::utf8proc_property_struct", ptr %173, i32 0, i32 1
  %175 = load i16, ptr %174, align 2, !tbaa !39
  %176 = sext i16 %175 to i32
  %177 = icmp sgt i32 %172, %176
  br i1 %177, label %178, label %203

178:                                              ; preds = %155
  %179 = load ptr, ptr %26, align 8, !tbaa !17
  %180 = getelementptr inbounds nuw %"struct.duckdb::utf8proc_property_struct", ptr %179, i32 0, i32 1
  %181 = load i16, ptr %180, align 2, !tbaa !39
  %182 = sext i16 %181 to i32
  %183 = icmp sgt i32 %182, 0
  br i1 %183, label %184, label %203

184:                                              ; preds = %178
  %185 = load i32, ptr %24, align 4, !tbaa !12
  %186 = load ptr, ptr %11, align 8, !tbaa !10
  %187 = load i64, ptr %22, align 8, !tbaa !3
  %188 = getelementptr inbounds i32, ptr %186, i64 %187
  store i32 %185, ptr %188, align 4, !tbaa !12
  %189 = load i32, ptr %23, align 4, !tbaa !12
  %190 = load ptr, ptr %11, align 8, !tbaa !10
  %191 = load i64, ptr %22, align 8, !tbaa !3
  %192 = add nsw i64 %191, 1
  %193 = getelementptr inbounds i32, ptr %190, i64 %192
  store i32 %189, ptr %193, align 4, !tbaa !12
  %194 = load i64, ptr %22, align 8, !tbaa !3
  %195 = icmp sgt i64 %194, 0
  br i1 %195, label %196, label %199

196:                                              ; preds = %184
  %197 = load i64, ptr %22, align 8, !tbaa !3
  %198 = add nsw i64 %197, -1
  store i64 %198, ptr %22, align 8, !tbaa !3
  br label %202

199:                                              ; preds = %184
  %200 = load i64, ptr %22, align 8, !tbaa !3
  %201 = add nsw i64 %200, 1
  store i64 %201, ptr %22, align 8, !tbaa !3
  br label %202

202:                                              ; preds = %199, %196
  br label %206

203:                                              ; preds = %178, %155
  %204 = load i64, ptr %22, align 8, !tbaa !3
  %205 = add nsw i64 %204, 1
  store i64 %205, ptr %22, align 8, !tbaa !3
  br label %206

206:                                              ; preds = %203, %202
  call void @llvm.lifetime.end.p0(i64 8, ptr %26) #6
  call void @llvm.lifetime.end.p0(i64 8, ptr %25) #6
  call void @llvm.lifetime.end.p0(i64 4, ptr %24) #6
  call void @llvm.lifetime.end.p0(i64 4, ptr %23) #6
  br label %150, !llvm.loop !40

207:                                              ; preds = %150
  call void @llvm.lifetime.end.p0(i64 8, ptr %22) #6
  br label %208

208:                                              ; preds = %207, %145, %141
  %209 = load i64, ptr %16, align 8, !tbaa !3
  store i64 %209, ptr %8, align 8
  store i32 1, ptr %17, align 4
  br label %210

210:                                              ; preds = %208, %139, %47, %34
  call void @llvm.lifetime.end.p0(i64 8, ptr %16) #6
  %211 = load i64, ptr %8, align 8
  ret i64 %211
}