; Function Attrs: mustprogress uwtable
define noundef i64 @_ZN6duckdb25utf8proc_decompose_customEPKhlPilNS_17utf8proc_option_tEPFiiPvES4_(ptr noundef readonly captures(none) %0, i64 noundef %1, ptr noundef captures(address_is_null) %2, i64 noundef %3, i32 noundef %4, ptr noundef readonly captures(address_is_null) %5, ptr noundef %6) local_unnamed_addr #5 {
  %8 = alloca i32, align 4
  %9 = alloca i32, align 4
  %10 = and i32 %4, 24
  %or.cond.not = icmp eq i32 %10, 24
  %11 = and i32 %4, 8216
  %or.cond85 = icmp eq i32 %11, 8192
  %or.cond = or i1 %or.cond.not, %or.cond85
  br i1 %or.cond, label %.loopexit, label %12

12:                                               ; preds = %7
  call void @llvm.lifetime.start.p0(i64 4, ptr nonnull %8) #11
  call void @llvm.lifetime.start.p0(i64 4, ptr nonnull %9) #11
  store i32 0, ptr %9, align 4, !tbaa !3
  %13 = and i32 %4, 1
  %.not79 = icmp eq i32 %13, 0
  %.not81 = icmp eq ptr %5, null
  %.not82 = icmp eq ptr %2, null
  br i1 %.not79, label %.split.us, label %.split

.split.us:                                        ; preds = %12, %33
  %.064.us = phi i64 [ %18, %33 ], [ 0, %12 ]
  %.061.us = phi i64 [ %34, %33 ], [ 0, %12 ]
  %.not80.us = icmp slt i64 %.064.us, %1
  br i1 %.not80.us, label %14, label %.split94.us

14:                                               ; preds = %.split.us
  %15 = getelementptr inbounds i8, ptr %0, i64 %.064.us
  %16 = sub nsw i64 %1, %.064.us
  %17 = call noundef i64 @_ZN6duckdb16utf8proc_iterateEPKhlPi(ptr noundef %15, i64 noundef %16, ptr noundef nonnull %8)
  %18 = add nsw i64 %17, %.064.us
  %19 = load i32, ptr %8, align 4, !tbaa !3
  %20 = icmp slt i32 %19, 0
  br i1 %20, label %.thread, label %21

21:                                               ; preds = %14
  br i1 %.not81, label %24, label %22

22:                                               ; preds = %21
  %23 = call noundef i32 %5(i32 noundef %19, ptr noundef %6)
  store i32 %23, ptr %8, align 4, !tbaa !3
  br label %24

24:                                               ; preds = %22, %21
  %25 = phi i32 [ %23, %22 ], [ %19, %21 ]
  %26 = getelementptr inbounds nuw i32, ptr %2, i64 %.061.us
  %27 = select i1 %.not82, ptr null, ptr %26
  %28 = icmp sgt i64 %3, %.061.us
  %29 = sub nsw i64 %3, %.061.us
  %30 = select i1 %28, i64 %29, i64 0
  %31 = call noundef i64 @_ZN6duckdb23utf8proc_decompose_charEiPilNS_17utf8proc_option_tES0_(i32 noundef %25, ptr noundef %27, i64 noundef %30, i32 noundef %4, ptr noundef nonnull %9)
  %32 = icmp slt i64 %31, 0
  br i1 %32, label %.thread, label %33

33:                                               ; preds = %24
  %34 = add nuw nsw i64 %31, %.061.us
  %35 = icmp sgt i64 %34, 1152921504606846975
  br i1 %35, label %.thread, label %.split.us, !llvm.loop !20

.split:                                           ; preds = %12
  br i1 %.not81, label %.split.split.us, label %.split.split

.split.split.us:                                  ; preds = %.split, %53
  %.064.us97 = phi i64 [ %38, %53 ], [ 0, %.split ]
  %.061.us98 = phi i64 [ %54, %53 ], [ 0, %.split ]
  %36 = getelementptr inbounds i8, ptr %0, i64 %.064.us97
  %37 = call noundef i64 @_ZN6duckdb16utf8proc_iterateEPKhlPi(ptr noundef %36, i64 noundef -1, ptr noundef nonnull %8)
  %38 = add nsw i64 %37, %.064.us97
  %39 = load i32, ptr %8, align 4, !tbaa !3
  %40 = icmp slt i32 %39, 0
  br i1 %40, label %.thread, label %41

41:                                               ; preds = %.split.split.us
  %42 = icmp slt i64 %38, 0
  br i1 %42, label %.thread, label %43

43:                                               ; preds = %41
  %44 = icmp eq i32 %39, 0
  br i1 %44, label %.split94.us, label %45

45:                                               ; preds = %43
  %46 = getelementptr inbounds nuw i32, ptr %2, i64 %.061.us98
  %47 = select i1 %.not82, ptr null, ptr %46
  %48 = icmp sgt i64 %3, %.061.us98
  %49 = sub nsw i64 %3, %.061.us98
  %50 = select i1 %48, i64 %49, i64 0
  %51 = call noundef i64 @_ZN6duckdb23utf8proc_decompose_charEiPilNS_17utf8proc_option_tES0_(i32 noundef %39, ptr noundef %47, i64 noundef %50, i32 noundef %4, ptr noundef nonnull %9)
  %52 = icmp slt i64 %51, 0
  br i1 %52, label %.thread, label %53

53:                                               ; preds = %45
  %54 = add nuw nsw i64 %51, %.061.us98
  %55 = icmp sgt i64 %54, 1152921504606846975
  br i1 %55, label %.thread, label %.split.split.us, !llvm.loop !20

.split.split:                                     ; preds = %.split, %74
  %.064 = phi i64 [ %58, %74 ], [ 0, %.split ]
  %.061 = phi i64 [ %75, %74 ], [ 0, %.split ]
  %56 = getelementptr inbounds i8, ptr %0, i64 %.064
  %57 = call noundef i64 @_ZN6duckdb16utf8proc_iterateEPKhlPi(ptr noundef %56, i64 noundef -1, ptr noundef nonnull %8)
  %58 = add nsw i64 %57, %.064
  %59 = load i32, ptr %8, align 4, !tbaa !3
  %60 = icmp slt i32 %59, 0
  br i1 %60, label %.thread, label %61

61:                                               ; preds = %.split.split
  %62 = icmp slt i64 %58, 0
  br i1 %62, label %.thread, label %63

63:                                               ; preds = %61
  %64 = icmp eq i32 %59, 0
  br i1 %64, label %.split94.us, label %65

65:                                               ; preds = %63
  %66 = call noundef i32 %5(i32 noundef %59, ptr noundef %6)
  store i32 %66, ptr %8, align 4, !tbaa !3
  %67 = getelementptr inbounds nuw i32, ptr %2, i64 %.061
  %68 = select i1 %.not82, ptr null, ptr %67
  %69 = icmp sgt i64 %3, %.061
  %70 = sub nsw i64 %3, %.061
  %71 = select i1 %69, i64 %70, i64 0
  %72 = call noundef i64 @_ZN6duckdb23utf8proc_decompose_charEiPilNS_17utf8proc_option_tES0_(i32 noundef %66, ptr noundef %68, i64 noundef %71, i32 noundef %4, ptr noundef nonnull %9)
  %73 = icmp slt i64 %72, 0
  br i1 %73, label %.thread, label %74

74:                                               ; preds = %65
  %75 = add nuw nsw i64 %72, %.061
  %76 = icmp sgt i64 %75, 1152921504606846975
  br i1 %76, label %.thread, label %.split.split, !llvm.loop !20

.thread:                                          ; preds = %.split.split, %61, %65, %74, %53, %45, %41, %.split.split.us, %14, %24, %33
  %.us-phi = phi i64 [ -2, %33 ], [ %31, %24 ], [ -3, %14 ], [ -2, %53 ], [ %51, %45 ], [ -2, %41 ], [ -3, %.split.split.us ], [ -2, %74 ], [ %72, %65 ], [ -2, %61 ], [ -3, %.split.split ]
  call void @llvm.lifetime.end.p0(i64 4, ptr nonnull %9) #11
  call void @llvm.lifetime.end.p0(i64 4, ptr nonnull %8) #11
  br label %.loopexit

.split94.us:                                      ; preds = %63, %43, %.split.us
  %.us-phi95 = phi i64 [ %.061.us, %.split.us ], [ %.061.us98, %43 ], [ %.061, %63 ]
  call void @llvm.lifetime.end.p0(i64 4, ptr nonnull %9) #11
  call void @llvm.lifetime.end.p0(i64 4, ptr nonnull %8) #11
  %.not83 = icmp eq i32 %10, 0
  %.not84 = icmp slt i64 %3, %.us-phi95
  %or.cond86 = or i1 %.not83, %.not84
  br i1 %or.cond86, label %.loopexit, label %.preheader

.preheader:                                       ; preds = %.split94.us
  %77 = add nsw i64 %.us-phi95, -1
  %78 = icmp sgt i64 %.us-phi95, 1
  br i1 %78, label %.lr.ph, label %.loopexit

.lr.ph:                                           ; preds = %.preheader, %115
  %.066102 = phi i64 [ %.167, %115 ], [ 0, %.preheader ]
  %79 = getelementptr inbounds i32, ptr %2, i64 %.066102
  %80 = load i32, ptr %79, align 4, !tbaa !3
  %81 = add nsw i64 %.066102, 1
  %82 = getelementptr inbounds i32, ptr %2, i64 %81
  %83 = load i32, ptr %82, align 4, !tbaa !3
  %84 = ashr i32 %80, 8
  %85 = sext i32 %84 to i64
  %86 = getelementptr inbounds [4352 x i16], ptr @_ZN6duckdbL20utf8proc_stage1tableE, i64 0, i64 %85
  %87 = load i16, ptr %86, align 2, !tbaa !8
  %88 = zext i16 %87 to i32
  %89 = and i32 %80, 255
  %90 = add nuw nsw i32 %89, %88
  %91 = zext nneg i32 %90 to i64
  %92 = getelementptr inbounds nuw [44800 x i16], ptr @_ZN6duckdbL20utf8proc_stage2tableE, i64 0, i64 %91
  %93 = load i16, ptr %92, align 2, !tbaa !8
  %94 = zext i16 %93 to i64
  %95 = ashr i32 %83, 8
  %96 = sext i32 %95 to i64
  %97 = getelementptr inbounds [4352 x i16], ptr @_ZN6duckdbL20utf8proc_stage1tableE, i64 0, i64 %96
  %98 = load i16, ptr %97, align 2, !tbaa !8
  %99 = zext i16 %98 to i32
  %100 = and i32 %83, 255
  %101 = add nuw nsw i32 %100, %99
  %102 = zext nneg i32 %101 to i64
  %103 = getelementptr inbounds nuw [44800 x i16], ptr @_ZN6duckdbL20utf8proc_stage2tableE, i64 0, i64 %102
  %104 = load i16, ptr %103, align 2, !tbaa !8
  %105 = zext i16 %104 to i64
  %106 = getelementptr inbounds nuw %"struct.duckdb::utf8proc_property_struct", ptr @_ZN6duckdbL19utf8proc_propertiesE, i64 %94, i32 1
  %107 = load i16, ptr %106, align 2, !tbaa !21
  %108 = getelementptr inbounds nuw %"struct.duckdb::utf8proc_property_struct", ptr @_ZN6duckdbL19utf8proc_propertiesE, i64 %105, i32 1
  %109 = load i16, ptr %108, align 2, !tbaa !21
  %110 = icmp sgt i16 %107, %109
  %111 = icmp sgt i16 %109, 0
  %or.cond87 = and i1 %110, %111
  br i1 %or.cond87, label %112, label %115

112:                                              ; preds = %.lr.ph
  store i32 %83, ptr %79, align 4, !tbaa !3
  store i32 %80, ptr %82, align 4, !tbaa !3
  %113 = icmp sgt i64 %.066102, 0
  %114 = add nsw i64 %.066102, -1
  %spec.select = select i1 %113, i64 %114, i64 %81
  br label %115

115:                                              ; preds = %112, %.lr.ph
  %.167 = phi i64 [ %81, %.lr.ph ], [ %spec.select, %112 ]
  %116 = icmp slt i64 %.167, %77
  br i1 %116, label %.lr.ph, label %.loopexit, !llvm.loop !22

.loopexit:                                        ; preds = %115, %.preheader, %.thread, %.split94.us, %7
  %.0 = phi i64 [ -5, %7 ], [ %.us-phi95, %.split94.us ], [ %.us-phi, %.thread ], [ %.us-phi95, %.preheader ], [ %.us-phi95, %115 ]
  ret i64 %.0
}